target datalayout = "e-m:e-p270:32:32-p271:32:32-p272:64:64-i64:64-i128:128-f80:128-n8:16:32:64-S128"
target triple = "x86_64-pc-linux-gnu"

%"union.icu_77::number::Precision::PrecisionUnion" = type { %"struct.icu_77::number::Precision::PrecisionUnion::IncrementSettings" }
%"struct.icu_77::number::Precision::PrecisionUnion::IncrementSettings" = type { i64, i16, i16 }
%"class.icu_77::number::Precision" = type <{ i32, [4 x i8], %"union.icu_77::number::Precision::PrecisionUnion", i32, [4 x i8] }>
%"struct.icu_77::number::Precision::PrecisionUnion::FractionSignificantSettings" = type { i16, i16, i16, i16, i32, i8 }

; Function Attrs: mustprogress nounwind uwtable
define linkonce_odr void @_ZN6icu_776number9PrecisionC2ERKNS1_13PrecisionTypeERKNS1_14PrecisionUnionE(ptr noundef nonnull align 8 dereferenceable(28) %0, ptr noundef nonnull align 4 dereferenceable(4) %1, ptr noundef nonnull align 8 dereferenceable(16) %2) unnamed_addr #0 comdat align 2 {
  %4 = alloca ptr, align 8
  %5 = alloca ptr, align 8
  %6 = alloca ptr, align 8
  store ptr %0, ptr %4, align 8, !tbaa !25
  store ptr %1, ptr %5, align 8, !tbaa !22
  store ptr %2, ptr %6, align 8, !tbaa !63
  %7 = load ptr, ptr %4, align 8
  %8 = getelementptr inbounds nuw %"class.icu_77::number::Precision", ptr %7, i32 0, i32 0
  %9 = load ptr, ptr %5, align 8, !tbaa !22
  %10 = load i32, ptr %9, align 4, !tbaa !52
  store i32 %10, ptr %8, align 8, !tbaa !65
  %11 = getelementptr inbounds nuw %"class.icu_77::number::Precision", ptr %7, i32 0, i32 2
  %12 = load ptr, ptr %6, align 8, !tbaa !63
  call void @llvm.memcpy.p0.p0.i64(ptr align 8 %11, ptr align 8 %12, i64 16, i1 false), !tbaa.struct !68
  %13 = getelementptr inbounds nuw %"class.icu_77::number::Precision", ptr %7, i32 0, i32 3
  store i32 0, ptr %13, align 8, !tbaa !69
  ret void
}

; Function Attrs: mustprogress nounwind uwtable
define linkonce_odr void @_ZN6icu_776number9PrecisionC2E10UErrorCode(ptr noundef nonnull align 8 dereferenceable(28) %0, i32 noundef %1) unnamed_addr #0 comdat align 2 {
  %3 = alloca ptr, align 8
  %4 = alloca i32, align 4
  store ptr %0, ptr %3, align 8, !tbaa !25
  store i32 %1, ptr %4, align 4, !tbaa !15
  %5 = load ptr, ptr %3, align 8
  %6 = getelementptr inbounds nuw %"class.icu_77::number::Precision", ptr %5, i32 0, i32 0
  store i32 9, ptr %6, align 8, !tbaa !65
  %7 = getelementptr inbounds nuw %"class.icu_77::number::Precision", ptr %5, i32 0, i32 3
  store i32 0, ptr %7, align 8, !tbaa !69
  %8 = load i32, ptr %4, align 4, !tbaa !15
  %9 = getelementptr inbounds nuw %"class.icu_77::number::Precision", ptr %5, i32 0, i32 2
  store i32 %8, ptr %9, align 8, !tbaa !33
  ret void
}

; Function Attrs: mustprogress uwtable
define void @_ZN6icu_776number9Precision20constructSignificantEii(ptr dead_on_unwind noalias writable sret(%"class.icu_77::number::Precision") align 8 %0, i32 noundef %1, i32 noundef %2) #1 align 2 {
  %4 = alloca i32, align 4
  %5 = alloca i32, align 4
  %6 = alloca %"struct.icu_77::number::Precision::PrecisionUnion::FractionSignificantSettings", align 4
  %7 = alloca %"union.icu_77::number::Precision::PrecisionUnion", align 8
  %8 = alloca i32, align 4
  store i32 %1, ptr %4, align 4, !tbaa !14
  store i32 %2, ptr %5, align 4, !tbaa !14
  call void @llvm.lifetime.start.p0(i64 16, ptr %6) #13
  call void @llvm.memset.p0.i64(ptr align 4 %6, i8 0, i64 16, i1 false)
  %9 = getelementptr inbounds nuw %"struct.icu_77::number::Precision::PrecisionUnion::FractionSignificantSettings", ptr %6, i32 0, i32 0
  store i16 -1, ptr %9, align 4, !tbaa !54
  %10 = getelementptr inbounds nuw %"struct.icu_77::number::Precision::PrecisionUnion::FractionSignificantSettings", ptr %6, i32 0, i32 1
  store i16 -1, ptr %10, align 2, !tbaa !58
  %11 = load i32, ptr %4, align 4, !tbaa !14
  %12 = trunc i32 %11 to i16
  %13 = getelementptr inbounds nuw %"struct.icu_77::number::Precision::PrecisionUnion::FractionSignificantSettings", ptr %6, i32 0, i32 2
  store i16 %12, ptr %13, align 4, !tbaa !59
  %14 = load i32, ptr %5, align 4, !tbaa !14
  %15 = trunc i32 %14 to i16
  %16 = getelementptr inbounds nuw %"struct.icu_77::number::Precision::PrecisionUnion::FractionSignificantSettings", ptr %6, i32 0, i32 3
  store i16 %15, ptr %16, align 2, !tbaa !60
  call void @llvm.lifetime.start.p0(i64 16, ptr %7) #13
  call void @llvm.memset.p0.i64(ptr align 8 %7, i8 0, i64 16, i1 false)
  call void @llvm.memcpy.p0.p0.i64(ptr align 8 %7, ptr align 4 %6, i64 16, i1 false), !tbaa.struct !70
  call void @llvm.lifetime.start.p0(i64 4, ptr %8) #13
  store i32 3, ptr %8, align 4, !tbaa !52
  call void @_ZN6icu_776number9PrecisionC2ERKNS1_13PrecisionTypeERKNS1_14PrecisionUnionE(ptr noundef nonnull align 8 dereferenceable(28) %0, ptr noundef nonnull align 4 dereferenceable(4) %8, ptr noundef nonnull align 8 dereferenceable(16) %7)
  call void @llvm.lifetime.end.p0(i64 4, ptr %8) #13
  call void @llvm.lifetime.end.p0(i64 16, ptr %7) #13
  call void @llvm.lifetime.end.p0(i64 16, ptr %6) #13
  ret void
}

; Function Attrs: mustprogress uwtable
define void @_ZN6icu_776number9Precision23minMaxSignificantDigitsEii(ptr dead_on_unwind noalias writable sret(%"class.icu_77::number::Precision") align 8 %0, i32 noundef %1, i32 noundef %2) #1 align 2 {
  %4 = alloca i32, align 4
  %5 = alloca i32, align 4
  store i32 %1, ptr %4, align 4, !tbaa !14
  store i32 %2, ptr %5, align 4, !tbaa !14
  %6 = load i32, ptr %4, align 4, !tbaa !14
  %7 = icmp sge i32 %6, 1
  br i1 %7, label %8, label %18

8:                                                ; preds = %3
  %9 = load i32, ptr %5, align 4, !tbaa !14
  %10 = icmp sle i32 %9, 999
  br i1 %10, label %11, label %18

11:                                               ; preds = %8
  %12 = load i32, ptr %4, align 4, !tbaa !14
  %13 = load i32, ptr %5, align 4, !tbaa !14
  %14 = icmp sle i32 %12, %13
  br i1 %14, label %15, label %18

15:                                               ; preds = %11
  %16 = load i32, ptr %4, align 4, !tbaa !14
  %17 = load i32, ptr %5, align 4, !tbaa !14
  call void @_ZN6icu_776number9Precision20constructSignificantEii(ptr dead_on_unwind writable sret(%"class.icu_77::number::Precision") align 8 %0, i32 noundef %16, i32 noundef %17)
  br label %19

18:                                               ; preds = %11, %8, %3
  call void @_ZN6icu_776number9PrecisionC2E10UErrorCode(ptr noundef nonnull align 8 dereferenceable(28) %0, i32 noundef 65810)
  br label %19

19:                                               ; preds = %18, %15
  ret void
}